target datalayout = "e-m:e-p270:32:32-p271:32:32-p272:64:64-i64:64-i128:128-f80:128-n8:16:32:64-S128"
target triple = "x86_64-pc-linux-gnu"

%struct.H5VL_connector_prop_t = type { ptr, ptr }
%struct.H5CX_node_t = type { %struct.H5CX_t, ptr }
%struct.H5CX_t = type { i64, ptr, i64, ptr, i64, ptr, i64, ptr, i64, ptr, i64, ptr, i64, i32, i64, i8, ptr, i8, ptr, i8, i32, i8, [3 x double], i8, i64, i8, i32, i8, %struct.H5Z_cb_t, i8, ptr, i8, %struct.H5T_vlen_alloc_info_t, i8, %struct.H5T_conv_cb_t, i8, i32, i8, i8, i8, i32, i8, i8, i32, i8, i8, i32, i8, i32, i8, i64, i8, i8, i8, i8, i8, ptr, i8, ptr, i8, i32, i8, i32, i8, %struct.H5VL_connector_prop_t, i8, ptr, i8 }
%struct.H5Z_cb_t = type { ptr, ptr }
%struct.H5T_vlen_alloc_info_t = type { ptr, ptr, ptr, ptr }
%struct.H5T_conv_cb_t = type { ptr, ptr }

@H5P_CLS_FILE_ACCESS_ID_g = external global i64, align 8
@H5P_init_g = external global i8, align 1
@H5_libterm_g = external global i8, align 1
@.str.2 = private unnamed_addr constant [101 x i8] c"generated/home/dtcxzyw/WorkSpace/Projects/compilers/llvm-opt-benchmark/bench/hdf5/hdf5/src/H5Pfapl.c\00", align 1
@H5E_CANTREGISTER_g = external global i64, align 8
@H5E_BADID_g = external global i64, align 8
@H5E_CANTSET_g = external global i64, align 8
@H5E_PLIST_g = external global i64, align 8
@H5_libinit_g = external global i8, align 1
@H5E_FUNC_g = external global i64, align 8
@H5E_CANTINIT_g = external global i64, align 8
@.str.15 = private unnamed_addr constant [30 x i8] c"library initialization failed\00", align 1
@.str.16 = private unnamed_addr constant [32 x i8] c"interface initialization failed\00", align 1
@.str.17 = private unnamed_addr constant [22 x i8] c"can't set API context\00", align 1
@H5E_ID_g = external global i64, align 8
@.str.19 = private unnamed_addr constant [25 x i8] c"can't find object for ID\00", align 1
@.str.133 = private unnamed_addr constant [41 x i8] c"property list is not a file access plist\00", align 1
@__func__.H5Pset_file_locking = private unnamed_addr constant [20 x i8] c"H5Pset_file_locking\00", align 1
@.str.138 = private unnamed_addr constant [17 x i8] c"use_file_locking\00", align 1
@.str.139 = private unnamed_addr constant [36 x i8] c"can't set use file locking property\00", align 1
@.str.140 = private unnamed_addr constant [27 x i8] c"ignore_disabled_file_locks\00", align 1
@.str.141 = private unnamed_addr constant [46 x i8] c"can't set ignore disabled file locks property\00", align 1

; Function Attrs: nounwind uwtable
define i32 @H5Pset_file_locking(i64 noundef %0, i1 noundef zeroext %1, i1 noundef zeroext %2) #0 {
  %4 = alloca i64, align 8
  %5 = alloca i8, align 1
  %6 = alloca i8, align 1
  %7 = alloca ptr, align 8
  %8 = alloca i32, align 4
  %9 = alloca %struct.H5CX_node_t, align 8
  %10 = alloca i8, align 1
  %11 = alloca i8, align 1
  store i64 %0, ptr %4, align 8, !tbaa !8
  %12 = zext i1 %1 to i8
  store i8 %12, ptr %5, align 1, !tbaa !22
  %13 = zext i1 %2 to i8
  store i8 %13, ptr %6, align 1, !tbaa !22
  call void @llvm.lifetime.start.p0(i64 8, ptr %7) #10
  call void @llvm.lifetime.start.p0(i64 4, ptr %8) #10
  store i32 0, ptr %8, align 4, !tbaa !20
  call void @llvm.lifetime.start.p0(i64 480, ptr %9) #10
  call void @llvm.memset.p0.i64(ptr align 8 %9, i8 0, i64 480, i1 false)
  call void @llvm.lifetime.start.p0(i64 1, ptr %10) #10
  store i8 0, ptr %10, align 1, !tbaa !22
  call void @llvm.lifetime.start.p0(i64 1, ptr %11) #10
  store i8 0, ptr %11, align 1, !tbaa !22
  br label %14

14:                                               ; preds = %3
  %15 = load i8, ptr @H5_libinit_g, align 1, !tbaa !22, !range !24, !noundef !25
  %16 = trunc i8 %15 to i1
  br i1 %16, label %21, label %17

17:                                               ; preds = %14
  %18 = load i8, ptr @H5_libterm_g, align 1, !tbaa !22, !range !24, !noundef !25
  %19 = trunc i8 %18 to i1
  %20 = xor i1 %19, true
  br label %21

21:                                               ; preds = %17, %14
  %22 = phi i1 [ false, %14 ], [ %20, %17 ]
  %23 = xor i1 %22, true
  %24 = xor i1 %23, true
  %25 = zext i1 %24 to i32
  %26 = sext i32 %25 to i64
  %27 = call i64 @llvm.expect.i64(i64 %26, i64 0)
  %28 = icmp ne i64 %27, 0
  br i1 %28, label %29, label %58

29:                                               ; preds = %21
  %30 = call i32 @H5_init_library()
  %31 = icmp slt i32 %30, 0
  %32 = xor i1 %31, true
  %33 = xor i1 %32, true
  %34 = zext i1 %33 to i32
  %35 = sext i32 %34 to i64
  %36 = call i64 @llvm.expect.i64(i64 %35, i64 0)
  %37 = icmp ne i64 %36, 0
  br i1 %37, label %38, label %57

38:                                               ; preds = %29
  br label %39

39:                                               ; preds = %38
  br label %40

40:                                               ; preds = %39
  br label %41

41:                                               ; preds = %40
  %42 = load i64, ptr @H5E_FUNC_g, align 8, !tbaa !8
  %43 = load i64, ptr @H5E_CANTINIT_g, align 8, !tbaa !8
  %44 = call i32 (ptr, ptr, i32, i64, i64, ptr, ...) @H5E_printf_stack(ptr noundef @.str.2, ptr noundef @__func__.H5Pset_file_locking, i32 noundef 4998, i64 noundef %42, i64 noundef %43, ptr noundef @.str.15)
  br label %45

45:                                               ; preds = %41
  br label %46

46:                                               ; preds = %45
  store i8 1, ptr %11, align 1, !tbaa !22
  %47 = load i8, ptr %11, align 1, !tbaa !22, !range !24, !noundef !25
  %48 = trunc i8 %47 to i1
  %49 = zext i1 %48 to i8
  store i8 %49, ptr %11, align 1, !tbaa !22
  br label %50

50:                                               ; preds = %46
  br label %51

51:                                               ; preds = %50
  br label %52

52:                                               ; preds = %51
  store i32 -1, ptr %8, align 4, !tbaa !20
  br label %225

53:                                               ; No predecessors!
  br label %54

54:                                               ; preds = %53
  br label %55

55:                                               ; preds = %54
  br label %56

56:                                               ; preds = %55
  br label %57

57:                                               ; preds = %56, %29
  br label %58

58:                                               ; preds = %57, %21
  %59 = load i8, ptr @H5P_init_g, align 1, !tbaa !22, !range !24, !noundef !25
  %60 = trunc i8 %59 to i1
  br i1 %60, label %65, label %61

61:                                               ; preds = %58
  %62 = load i8, ptr @H5_libterm_g, align 1, !tbaa !22, !range !24, !noundef !25
  %63 = trunc i8 %62 to i1
  %64 = xor i1 %63, true
  br label %65

65:                                               ; preds = %61, %58
  %66 = phi i1 [ false, %58 ], [ %64, %61 ]
  %67 = xor i1 %66, true
  %68 = xor i1 %67, true
  %69 = zext i1 %68 to i32
  %70 = sext i32 %69 to i64
  %71 = call i64 @llvm.expect.i64(i64 %70, i64 0)
  %72 = icmp ne i64 %71, 0
  br i1 %72, label %73, label %96

73:                                               ; preds = %65
  store i8 1, ptr @H5P_init_g, align 1, !tbaa !22
  %74 = call i32 @H5P__init_package()
  %75 = icmp slt i32 %74, 0
  br i1 %75, label %76, label %95

76:                                               ; preds = %73
  store i8 0, ptr @H5P_init_g, align 1, !tbaa !22
  br label %77

77:                                               ; preds = %76
  br label %78

78:                                               ; preds = %77
  br label %79

79:                                               ; preds = %78
  %80 = load i64, ptr @H5E_FUNC_g, align 8, !tbaa !8
  %81 = load i64, ptr @H5E_CANTINIT_g, align 8, !tbaa !8
  %82 = call i32 (ptr, ptr, i32, i64, i64, ptr, ...) @H5E_printf_stack(ptr noundef @.str.2, ptr noundef @__func__.H5Pset_file_locking, i32 noundef 4998, i64 noundef %80, i64 noundef %81, ptr noundef @.str.16)
  br label %83

83:                                               ; preds = %79
  br label %84

84:                                               ; preds = %83
  store i8 1, ptr %11, align 1, !tbaa !22
  %85 = load i8, ptr %11, align 1, !tbaa !22, !range !24, !noundef !25
  %86 = trunc i8 %85 to i1
  %87 = zext i1 %86 to i8
  store i8 %87, ptr %11, align 1, !tbaa !22
  br label %88

88:                                               ; preds = %84
  br label %89

89:                                               ; preds = %88
  br label %90

90:                                               ; preds = %89
  store i32 -1, ptr %8, align 4, !tbaa !20
  br label %225

91:                                               ; No predecessors!
  br label %92

92:                                               ; preds = %91
  br label %93

93:                                               ; preds = %92
  br label %94

94:                                               ; preds = %93
  br label %95

95:                                               ; preds = %94, %73
  br label %96

96:                                               ; preds = %95, %65
  br label %97

97:                                               ; preds = %96
  br label %98

98:                                               ; preds = %97
  br label %99

99:                                               ; preds = %98
  %100 = call i32 @H5CX_push(ptr noundef %9)
  %101 = icmp slt i32 %100, 0
  %102 = xor i1 %101, true
  %103 = xor i1 %102, true
  %104 = zext i1 %103 to i32
  %105 = sext i32 %104 to i64
  %106 = call i64 @llvm.expect.i64(i64 %105, i64 0)
  %107 = icmp ne i64 %106, 0
  br i1 %107, label %108, label %127

108:                                              ; preds = %99
  br label %109

109:                                              ; preds = %108
  br label %110

110:                                              ; preds = %109
  br label %111

111:                                              ; preds = %110
  %112 = load i64, ptr @H5E_FUNC_g, align 8, !tbaa !8
  %113 = load i64, ptr @H5E_CANTSET_g, align 8, !tbaa !8
  %114 = call i32 (ptr, ptr, i32, i64, i64, ptr, ...) @H5E_printf_stack(ptr noundef @.str.2, ptr noundef @__func__.H5Pset_file_locking, i32 noundef 4998, i64 noundef %112, i64 noundef %113, ptr noundef @.str.17)
  br label %115

115:                                              ; preds = %111
  br label %116

116:                                              ; preds = %115
  store i8 1, ptr %11, align 1, !tbaa !22
  %117 = load i8, ptr %11, align 1, !tbaa !22, !range !24, !noundef !25
  %118 = trunc i8 %117 to i1
  %119 = zext i1 %118 to i8
  store i8 %119, ptr %11, align 1, !tbaa !22
  br label %120

120:                                              ; preds = %116
  br label %121

121:                                              ; preds = %120
  br label %122

122:                                              ; preds = %121
  store i32 -1, ptr %8, align 4, !tbaa !20
  br label %225

123:                                              ; No predecessors!
  br label %124

124:                                              ; preds = %123
  br label %125

125:                                              ; preds = %124
  br label %126

126:                                              ; preds = %125
  br label %128

127:                                              ; preds = %99
  store i8 1, ptr %10, align 1, !tbaa !22
  br label %128

128:                                              ; preds = %127, %126
  br label %129

129:                                              ; preds = %128
  br label %130

130:                                              ; preds = %129
  %131 = call i32 @H5E_clear_stack()
  %132 = load i64, ptr %4, align 8, !tbaa !8
  %133 = load i64, ptr @H5P_CLS_FILE_ACCESS_ID_g, align 8, !tbaa !8
  %134 = call i32 @H5P_isa_class(i64 noundef %132, i64 noundef %133)
  %135 = icmp ne i32 1, %134
  br i1 %135, label %136, label %155

136:                                              ; preds = %130
  br label %137

137:                                              ; preds = %136
  br label %138

138:                                              ; preds = %137
  br label %139

139:                                              ; preds = %138
  %140 = load i64, ptr @H5E_PLIST_g, align 8, !tbaa !8
  %141 = load i64, ptr @H5E_CANTREGISTER_g, align 8, !tbaa !8
  %142 = call i32 (ptr, ptr, i32, i64, i64, ptr, ...) @H5E_printf_stack(ptr noundef @.str.2, ptr noundef @__func__.H5Pset_file_locking, i32 noundef 5002, i64 noundef %140, i64 noundef %141, ptr noundef @.str.133)
  br label %143

143:                                              ; preds = %139
  br label %144

144:                                              ; preds = %143
  store i8 1, ptr %11, align 1, !tbaa !22
  %145 = load i8, ptr %11, align 1, !tbaa !22, !range !24, !noundef !25
  %146 = trunc i8 %145 to i1
  %147 = zext i1 %146 to i8
  store i8 %147, ptr %11, align 1, !tbaa !22
  br label %148

148:                                              ; preds = %144
  br label %149

149:                                              ; preds = %148
  br label %150

150:                                              ; preds = %149
  store i32 -1, ptr %8, align 4, !tbaa !20
  br label %225

151:                                              ; No predecessors!
  br label %152

152:                                              ; preds = %151
  br label %153

153:                                              ; preds = %152
  br label %154

154:                                              ; preds = %153
  br label %155

155:                                              ; preds = %154, %130
  %156 = load i64, ptr %4, align 8, !tbaa !8
  %157 = call ptr @H5I_object(i64 noundef %156)
  store ptr %157, ptr %7, align 8, !tbaa !28
  %158 = icmp eq ptr null, %157
  br i1 %158, label %159, label %178

159:                                              ; preds = %155
  br label %160

160:                                              ; preds = %159
  br label %161

161:                                              ; preds = %160
  br label %162

162:                                              ; preds = %161
  %163 = load i64, ptr @H5E_ID_g, align 8, !tbaa !8
  %164 = load i64, ptr @H5E_BADID_g, align 8, !tbaa !8
  %165 = call i32 (ptr, ptr, i32, i64, i64, ptr, ...) @H5E_printf_stack(ptr noundef @.str.2, ptr noundef @__func__.H5Pset_file_locking, i32 noundef 5006, i64 noundef %163, i64 noundef %164, ptr noundef @.str.19)
  br label %166

166:                                              ; preds = %162
  br label %167

167:                                              ; preds = %166
  store i8 1, ptr %11, align 1, !tbaa !22
  %168 = load i8, ptr %11, align 1, !tbaa !22, !range !24, !noundef !25
  %169 = trunc i8 %168 to i1
  %170 = zext i1 %169 to i8
  store i8 %170, ptr %11, align 1, !tbaa !22
  br label %171

171:                                              ; preds = %167
  br label %172

172:                                              ; preds = %171
  br label %173

173:                                              ; preds = %172
  store i32 -1, ptr %8, align 4, !tbaa !20
  br label %225

174:                                              ; No predecessors!
  br label %175

175:                                              ; preds = %174
  br label %176

176:                                              ; preds = %175
  br label %177

177:                                              ; preds = %176
  br label %178

178:                                              ; preds = %177, %155
  %179 = load ptr, ptr %7, align 8, !tbaa !28
  %180 = call i32 @H5P_set(ptr noundef %179, ptr noundef @.str.138, ptr noundef %5)
  %181 = icmp slt i32 %180, 0
  br i1 %181, label %182, label %201

182:                                              ; preds = %178
  br label %183

183:                                              ; preds = %182
  br label %184

184:                                              ; preds = %183
  br label %185

185:                                              ; preds = %184
  %186 = load i64, ptr @H5E_PLIST_g, align 8, !tbaa !8
  %187 = load i64, ptr @H5E_CANTSET_g, align 8, !tbaa !8
  %188 = call i32 (ptr, ptr, i32, i64, i64, ptr, ...) @H5E_printf_stack(ptr noundef @.str.2, ptr noundef @__func__.H5Pset_file_locking, i32 noundef 5010, i64 noundef %186, i64 noundef %187, ptr noundef @.str.139)
  br label %189

189:                                              ; preds = %185
  br label %190

190:                                              ; preds = %189
  store i8 1, ptr %11, align 1, !tbaa !22
  %191 = load i8, ptr %11, align 1, !tbaa !22, !range !24, !noundef !25
  %192 = trunc i8 %191 to i1
  %193 = zext i1 %192 to i8
  store i8 %193, ptr %11, align 1, !tbaa !22
  br label %194

194:                                              ; preds = %190
  br label %195

195:                                              ; preds = %194
  br label %196

196:                                              ; preds = %195
  store i32 -1, ptr %8, align 4, !tbaa !20
  br label %225

197:                                              ; No predecessors!
  br label %198

198:                                              ; preds = %197
  br label %199

199:                                              ; preds = %198
  br label %200

200:                                              ; preds = %199
  br label %201

201:                                              ; preds = %200, %178
  %202 = load ptr, ptr %7, align 8, !tbaa !28
  %203 = call i32 @H5P_set(ptr noundef %202, ptr noundef @.str.140, ptr noundef %6)
  %204 = icmp slt i32 %203, 0
  br i1 %204, label %205, label %224

205:                                              ; preds = %201
  br label %206

206:                                              ; preds = %205
  br label %207

207:                                              ; preds = %206
  br label %208

208:                                              ; preds = %207
  %209 = load i64, ptr @H5E_PLIST_g, align 8, !tbaa !8
  %210 = load i64, ptr @H5E_CANTSET_g, align 8, !tbaa !8
  %211 = call i32 (ptr, ptr, i32, i64, i64, ptr, ...) @H5E_printf_stack(ptr noundef @.str.2, ptr noundef @__func__.H5Pset_file_locking, i32 noundef 5012, i64 noundef %209, i64 noundef %210, ptr noundef @.str.141)
  br label %212

212:                                              ; preds = %208
  br label %213

213:                                              ; preds = %212
  store i8 1, ptr %11, align 1, !tbaa !22
  %214 = load i8, ptr %11, align 1, !tbaa !22, !range !24, !noundef !25
  %215 = trunc i8 %214 to i1
  %216 = zext i1 %215 to i8
  store i8 %216, ptr %11, align 1, !tbaa !22
  br label %217

217:                                              ; preds = %213
  br label %218

218:                                              ; preds = %217
  br label %219

219:                                              ; preds = %218
  store i32 -1, ptr %8, align 4, !tbaa !20
  br label %225

220:                                              ; No predecessors!
  br label %221

221:                                              ; preds = %220
  br label %222

222:                                              ; preds = %221
  br label %223

223:                                              ; preds = %222
  br label %224

224:                                              ; preds = %223, %201
  br label %225

225:                                              ; preds = %224, %219, %196, %173, %150, %122, %90, %52
  %226 = load i8, ptr %10, align 1, !tbaa !22, !range !24, !noundef !25
  %227 = trunc i8 %226 to i1
  %228 = xor i1 %227, true
  %229 = xor i1 %228, true
  %230 = zext i1 %229 to i32
  %231 = sext i32 %230 to i64
  %232 = call i64 @llvm.expect.i64(i64 %231, i64 1)
  %233 = icmp ne i64 %232, 0
  br i1 %233, label %234, label %236

234:                                              ; preds = %225
  %235 = call i32 @H5CX_pop(i1 noundef zeroext true)
  store i8 0, ptr %10, align 1, !tbaa !22
  br label %236

236:                                              ; preds = %234, %225
  %237 = load i8, ptr %11, align 1, !tbaa !22, !range !24, !noundef !25
  %238 = trunc i8 %237 to i1
  %239 = xor i1 %238, true
  %240 = xor i1 %239, true
  %241 = zext i1 %240 to i32
  %242 = sext i32 %241 to i64
  %243 = call i64 @llvm.expect.i64(i64 %242, i64 0)
  %244 = icmp ne i64 %243, 0
  br i1 %244, label %245, label %247

245:                                              ; preds = %236
  %246 = call i32 @H5E_dump_api_stack()
  br label %247

247:                                              ; preds = %245, %236
  %248 = load i32, ptr %8, align 4, !tbaa !20
  call void @llvm.lifetime.end.p0(i64 1, ptr %11) #10
  call void @llvm.lifetime.end.p0(i64 1, ptr %10) #10
  call void @llvm.lifetime.end.p0(i64 480, ptr %9) #10
  call void @llvm.lifetime.end.p0(i64 4, ptr %8) #10
  call void @llvm.lifetime.end.p0(i64 8, ptr %7) #10
  ret i32 %248
}