; Function Attrs: nounwind uwtable
define range(i32 -1, 1) i32 @H5Pset_file_locking(i64 noundef %0, i1 noundef zeroext %1, i1 noundef zeroext %2) local_unnamed_addr #0 {
  %4 = alloca i8, align 1
  %5 = alloca i8, align 1
  %6 = alloca %struct.H5CX_node_t, align 8
  %7 = zext i1 %1 to i8
  store i8 %7, ptr %4, align 1, !tbaa !16
  %8 = zext i1 %2 to i8
  store i8 %8, ptr %5, align 1, !tbaa !16
  call void @llvm.lifetime.start.p0(i64 480, ptr nonnull %6) #15
  call void @llvm.memset.p0.i64(ptr noundef nonnull align 8 dereferenceable(480) %6, i8 0, i64 480, i1 false)
  %9 = load i8, ptr @H5_libinit_g, align 1, !tbaa !16, !range !18, !noundef !19
  %10 = trunc nuw i8 %9 to i1
  %11 = load i8, ptr @H5_libterm_g, align 1, !range !18
  %12 = trunc nuw i8 %11 to i1
  %13 = select i1 %10, i1 true, i1 %12
  br i1 %13, label %21, label %14, !prof !20

14:                                               ; preds = %3
  %15 = tail call i32 @H5_init_library() #15
  %16 = icmp slt i32 %15, 0
  br i1 %16, label %17, label %._crit_edge, !prof !28

._crit_edge:                                      ; preds = %14
  %.pre = load i8, ptr @H5_libterm_g, align 1, !range !18
  br label %21

17:                                               ; preds = %14
  %18 = load i64, ptr @H5E_FUNC_g, align 8, !tbaa !3
  %19 = load i64, ptr @H5E_CANTINIT_g, align 8, !tbaa !3
  %20 = tail call i32 (ptr, ptr, i32, i64, i64, ptr, ...) @H5E_printf_stack(ptr noundef nonnull @.str.2, ptr noundef nonnull @__func__.H5Pset_file_locking, i32 noundef 4998, i64 noundef %18, i64 noundef %19, ptr noundef nonnull @.str.15) #15
  br label %.thread24

21:                                               ; preds = %._crit_edge, %3
  %22 = phi i8 [ %.pre, %._crit_edge ], [ %11, %3 ]
  %23 = load i8, ptr @H5P_init_g, align 1, !tbaa !16, !range !18, !noundef !19
  %24 = trunc nuw i8 %23 to i1
  %25 = trunc nuw i8 %22 to i1
  %26 = select i1 %24, i1 true, i1 %25
  br i1 %26, label %34, label %27, !prof !20

27:                                               ; preds = %21
  store i8 1, ptr @H5P_init_g, align 1, !tbaa !16
  %28 = tail call i32 @H5P__init_package() #15
  %29 = icmp slt i32 %28, 0
  br i1 %29, label %30, label %34, !prof !29

30:                                               ; preds = %27
  store i8 0, ptr @H5P_init_g, align 1, !tbaa !16
  %31 = load i64, ptr @H5E_FUNC_g, align 8, !tbaa !3
  %32 = load i64, ptr @H5E_CANTINIT_g, align 8, !tbaa !3
  %33 = tail call i32 (ptr, ptr, i32, i64, i64, ptr, ...) @H5E_printf_stack(ptr noundef nonnull @.str.2, ptr noundef nonnull @__func__.H5Pset_file_locking, i32 noundef 4998, i64 noundef %31, i64 noundef %32, ptr noundef nonnull @.str.16) #15
  br label %.thread24

34:                                               ; preds = %21, %27
  %35 = call i32 @H5CX_push(ptr noundef nonnull %6) #15
  %36 = icmp slt i32 %35, 0
  br i1 %36, label %37, label %41, !prof !28

37:                                               ; preds = %34
  %38 = load i64, ptr @H5E_FUNC_g, align 8, !tbaa !3
  %39 = load i64, ptr @H5E_CANTSET_g, align 8, !tbaa !3
  %40 = call i32 (ptr, ptr, i32, i64, i64, ptr, ...) @H5E_printf_stack(ptr noundef nonnull @.str.2, ptr noundef nonnull @__func__.H5Pset_file_locking, i32 noundef 4998, i64 noundef %38, i64 noundef %39, ptr noundef nonnull @.str.17) #15
  br label %.thread24

41:                                               ; preds = %34
  %42 = call i32 @H5E_clear_stack() #15
  %43 = load i64, ptr @H5P_CLS_FILE_ACCESS_ID_g, align 8, !tbaa !3
  %44 = call i32 @H5P_isa_class(i64 noundef %0, i64 noundef %43) #15
  %.not = icmp eq i32 %44, 1
  br i1 %.not, label %49, label %45, !prof !37

45:                                               ; preds = %41
  %46 = load i64, ptr @H5E_PLIST_g, align 8, !tbaa !3
  %47 = load i64, ptr @H5E_CANTREGISTER_g, align 8, !tbaa !3
  %48 = call i32 (ptr, ptr, i32, i64, i64, ptr, ...) @H5E_printf_stack(ptr noundef nonnull @.str.2, ptr noundef nonnull @__func__.H5Pset_file_locking, i32 noundef 5002, i64 noundef %46, i64 noundef %47, ptr noundef nonnull @.str.133) #15
  br label %.thread30

49:                                               ; preds = %41
  %50 = call ptr @H5I_object(i64 noundef %0) #15
  %51 = icmp eq ptr %50, null
  br i1 %51, label %52, label %56, !prof !30

52:                                               ; preds = %49
  %53 = load i64, ptr @H5E_ID_g, align 8, !tbaa !3
  %54 = load i64, ptr @H5E_BADID_g, align 8, !tbaa !3
  %55 = call i32 (ptr, ptr, i32, i64, i64, ptr, ...) @H5E_printf_stack(ptr noundef nonnull @.str.2, ptr noundef nonnull @__func__.H5Pset_file_locking, i32 noundef 5006, i64 noundef %53, i64 noundef %54, ptr noundef nonnull @.str.19) #15
  br label %.thread30

56:                                               ; preds = %49
  %57 = call i32 @H5P_set(ptr noundef nonnull %50, ptr noundef nonnull @.str.138, ptr noundef nonnull %4) #15
  %58 = icmp slt i32 %57, 0
  br i1 %58, label %59, label %63, !prof !30

59:                                               ; preds = %56
  %60 = load i64, ptr @H5E_PLIST_g, align 8, !tbaa !3
  %61 = load i64, ptr @H5E_CANTSET_g, align 8, !tbaa !3
  %62 = call i32 (ptr, ptr, i32, i64, i64, ptr, ...) @H5E_printf_stack(ptr noundef nonnull @.str.2, ptr noundef nonnull @__func__.H5Pset_file_locking, i32 noundef 5010, i64 noundef %60, i64 noundef %61, ptr noundef nonnull @.str.139) #15
  br label %.thread30

63:                                               ; preds = %56
  %64 = call i32 @H5P_set(ptr noundef nonnull %50, ptr noundef nonnull @.str.140, ptr noundef nonnull %5) #15
  %65 = icmp slt i32 %64, 0
  br i1 %65, label %66, label %71, !prof !30

66:                                               ; preds = %63
  %67 = load i64, ptr @H5E_PLIST_g, align 8, !tbaa !3
  %68 = load i64, ptr @H5E_CANTSET_g, align 8, !tbaa !3
  %69 = call i32 (ptr, ptr, i32, i64, i64, ptr, ...) @H5E_printf_stack(ptr noundef nonnull @.str.2, ptr noundef nonnull @__func__.H5Pset_file_locking, i32 noundef 5012, i64 noundef %67, i64 noundef %68, ptr noundef nonnull @.str.141) #15
  br label %.thread30

.thread30:                                        ; preds = %66, %59, %52, %45
  %70 = call i32 @H5CX_pop(i1 noundef zeroext true) #15
  br label %.thread24

71:                                               ; preds = %63
  %72 = call i32 @H5CX_pop(i1 noundef zeroext true) #15
  br label %74

.thread24:                                        ; preds = %37, %30, %17, %.thread30
  %73 = call i32 @H5E_dump_api_stack() #15
  br label %74

74:                                               ; preds = %71, %.thread24
  %.0141927 = phi i32 [ -1, %.thread24 ], [ 0, %71 ]
  call void @llvm.lifetime.end.p0(i64 480, ptr nonnull %6) #15
  ret i32 %.0141927
}